target datalayout = "e-m:e-p270:32:32-p271:32:32-p272:64:64-i64:64-i128:128-f80:128-n8:16:32:64-S128"
target triple = "x86_64-pc-linux-gnu"

%struct.AVRational = type { i32, i32 }
%struct.MPVEncContext = type { %struct.MpegEncContext, %struct.PutBitContext, i32, i32, ptr, i32, i32, i32, i32, i32, i32, i32, i32, ptr, ptr, %struct.FDCTDSPContext, %struct.MpegvideoEncDSPContext, %struct.PixblockDSPContext, %struct.MotionEstContext, i32, i32, ptr, ptr, ptr, ptr, ptr, ptr, [2 x [2 x [2 x ptr]]], [2 x ptr], [2 x [2 x ptr]], ptr, ptr, ptr, ptr, [3 x i64], i32, i32, i32, i32, i32, ptr, ptr, ptr, ptr, ptr, ptr, ptr, [12 x i32], ptr, ptr, ptr, ptr, ptr, ptr, ptr, ptr, [2 x i32], ptr, i32, i32, i32, i32, i32, i32, i32, i32, i32, i32, ptr, ptr, i32, i32, %struct.PutBitContext, %struct.PutBitContext, i32, i32, i32, i32, ptr, ptr, ptr, [2 x ptr], [2 x ptr], [2 x ptr], [2 x ptr], ptr, i32 }
%struct.MpegEncContext = type { ptr, i32, i32, i32, [12 x i32], i32, %struct.ScanTable, %struct.ScanTable, [64 x i8], [64 x i8], ptr, ptr, i32, i32, i32, i32, i32, i32, i32, i32, i32, i32, i32, i32, i32, i32, i32, i32, i32, i32, i32, i32, i64, i64, ptr, %struct.BufferPoolContext, i32, i32, %union.anon, i32, %struct.MPVWorkPicture, %struct.MPVWorkPicture, %struct.MPVWorkPicture, i32, [3 x i32], ptr, [3 x ptr], ptr, ptr, ptr, ptr, ptr, ptr, [3 x ptr], i32, ptr, ptr, ptr, ptr, %struct.ScratchpadContext, i32, i32, i32, i32, i32, i32, %struct.BlockDSPContext, %struct.H264ChromaContext, %struct.HpelDSPContext, %struct.IDCTDSPContext, %struct.QpelDSPContext, %struct.VideoDSPContext, %struct.H263DSPContext, ptr, [2 x [2 x ptr]], i32, i32, [2 x [4 x [2 x i32]]], [2 x [2 x i32]], [2 x [2 x [2 x i32]]], [2 x [64 x i16]], i32, i32, i32, i32, i32, [6 x i32], [6 x i32], [3 x ptr], ptr, [64 x i16], [64 x i16], [64 x i16], [64 x i16], i32, i32, %struct.GetBitContext, i32, i32, i32, i32, i32, i32, i32, i32, i32, i32, i32, i32, i32, i32, i32, i64, i64, i16, i16, i16, i16, i32, i32, i32, i32, i32, i32, i32, i32, i32, [3 x i32], i32, i32, i32, i32, i32, i32, %struct.GetBitContext, i32, [2 x [2 x i32]], i32, i32, i32, i32, i32, i32, i32, i32, i32, i32, i32, i32, i32, i32, [2 x i32], i32, i32, ptr, ptr, ptr, ptr, ptr, i32, i32, %struct.ERContext }
%struct.ScanTable = type { ptr, [64 x i8], [64 x i8] }
%struct.BufferPoolContext = type { ptr, ptr, ptr, ptr, ptr, i32, i32, i32 }
%union.anon = type { [32 x ptr] }
%struct.MPVWorkPicture = type { [3 x ptr], [3 x i64], ptr, ptr, [2 x ptr], ptr, ptr, [2 x ptr], i32 }
%struct.ScratchpadContext = type { ptr, ptr, %union.anon.0, i32 }
%union.anon.0 = type { ptr }
%struct.BlockDSPContext = type { ptr, ptr, [2 x ptr] }
%struct.H264ChromaContext = type { [4 x ptr], [4 x ptr] }
%struct.HpelDSPContext = type { [4 x [4 x ptr]], [4 x [4 x ptr]], [4 x [4 x ptr]], [4 x ptr] }
%struct.IDCTDSPContext = type { ptr, ptr, ptr, ptr, ptr, ptr, [64 x i8], i32, i32 }
%struct.QpelDSPContext = type { [2 x [16 x ptr]], [2 x [16 x ptr]], [2 x [16 x ptr]] }
%struct.VideoDSPContext = type { ptr, ptr }
%struct.H263DSPContext = type { ptr, ptr }
%struct.GetBitContext = type { ptr, ptr, i32, i32, i32 }
%struct.ERContext = type { ptr, ptr, i32, ptr, i32, i32, i32, i64, i64, i32, i32, ptr, ptr, [3 x ptr], ptr, ptr, [2 x [4 x [2 x i32]]], %struct.ERPicture, %struct.ERPicture, %struct.ERPicture, [2 x ptr], [2 x ptr], i16, i16, i32, i32, ptr, ptr }
%struct.ERPicture = type { ptr, ptr, ptr, [2 x ptr], [2 x ptr], ptr, i32 }
%struct.FDCTDSPContext = type { ptr, ptr }
%struct.MpegvideoEncDSPContext = type { ptr, ptr, ptr, ptr, [4 x ptr], ptr }
%struct.PixblockDSPContext = type { ptr, ptr, ptr, ptr }
%struct.MotionEstContext = type { ptr, i32, i32, [4 x [2 x i32]], [4 x [2 x i32]], ptr, ptr, i32, i32, i32, i32, i32, i32, i32, i32, i32, i32, i32, i32, i32, i32, i32, i32, [4 x [4 x ptr]], [4 x [4 x ptr]], i32, i32, i64, i64, i32, [6 x ptr], [6 x ptr], [6 x ptr], [6 x ptr], [2 x [4 x ptr]], ptr, ptr, ptr, ptr, ptr, ptr, ptr, ptr, [64 x i32], [64 x i32] }
%struct.PutBitContext = type { i32, i32, ptr, ptr, ptr }
%struct.AVCodecContext = type { ptr, i32, i32, ptr, i32, i32, ptr, ptr, ptr, i64, i32, i32, ptr, i32, %struct.AVRational, %struct.AVRational, %struct.AVRational, i32, i32, i32, i32, i32, %struct.AVRational, i32, i32, i32, i32, i32, i32, i32, i32, i32, i32, i32, ptr, ptr, i32, float, float, float, float, float, float, float, float, float, i32, i32, i32, i32, i32, i32, i32, i32, i32, i32, i32, i32, ptr, ptr, ptr, i32, i32, i32, i32, i32, i32, i32, i32, i32, i32, %struct.AVChannelLayout, i32, i32, i32, i32, i32, i32, i32, i32, ptr, i32, i32, i32, float, float, i32, i32, i32, i32, i32, ptr, i64, i64, float, float, i32, i32, ptr, ptr, i32, i32, i32, i32, i32, ptr, ptr, ptr, ptr, i32, i32, [8 x i64], i32, i32, i32, i32, i32, i32, i32, ptr, ptr, i32, i32, i32, i32, i32, i32, i32, i32, i32, i32, ptr, ptr, i32, i32, ptr, ptr, ptr, ptr, i32, i32, i64, i32, i32, i64, ptr, i64, ptr, i32, ptr, i32 }
%struct.AVChannelLayout = type { i32, i32, %union.anon.3, ptr }
%union.anon.3 = type { i64 }
%struct.MPEG12EncContext = type { %struct.MPVMainEncContext, %struct.AVRational, i32, i32, i64, %struct.AVTimecode, ptr, i32, i32, i32, i32, i32 }
%struct.MPVMainEncContext = type { %struct.MPVEncContext, i32, i32, i32, i32, i32, i32, [17 x ptr], [17 x ptr], i64, i64, i64, [18 x ptr], i32, i32, i32, i32, i32, float, i32, i32, i32, i32, ptr, i32, i32, i32, i32, ptr, ptr, i64, i64, i32, i32, i32, i32, i32, [5 x i32], i32, i32, %struct.RateControlContext, i32, i32, i64, i64, ptr, ptr, ptr }
%struct.RateControlContext = type { i32, ptr, double, [5 x %struct.Predictor], double, double, double, double, double, [5 x double], i64, i64, [5 x i64], [5 x i64], [5 x i64], [5 x i64], [5 x i32], i32, float, float, i32, float, float, ptr, ptr, ptr, ptr }
%struct.Predictor = type { double, double, double }
%struct.AVTimecode = type { i32, i32, %struct.AVRational, i32 }

@ff_mpeg12_frame_rate_tab = external constant [0 x %struct.AVRational], align 4

; Function Attrs: inlinehint nounwind uwtable
define internal i32 @av_cmp_q(i64 %0, i64 %1) #3 {
  %3 = alloca i32, align 4
  %4 = alloca %struct.AVRational, align 4
  %5 = alloca %struct.AVRational, align 4
  %6 = alloca i64, align 8
  %7 = alloca i32, align 4
  store i64 %0, ptr %4, align 4
  store i64 %1, ptr %5, align 4
  call void @llvm.lifetime.start.p0(i64 8, ptr %6) #13
  %8 = getelementptr inbounds nuw %struct.AVRational, ptr %4, i32 0, i32 0
  %9 = load i32, ptr %8, align 4, !tbaa !171
  %10 = sext i32 %9 to i64
  %11 = getelementptr inbounds nuw %struct.AVRational, ptr %5, i32 0, i32 1
  %12 = load i32, ptr %11, align 4, !tbaa !172
  %13 = sext i32 %12 to i64
  %14 = mul nsw i64 %10, %13
  %15 = getelementptr inbounds nuw %struct.AVRational, ptr %5, i32 0, i32 0
  %16 = load i32, ptr %15, align 4, !tbaa !171
  %17 = sext i32 %16 to i64
  %18 = getelementptr inbounds nuw %struct.AVRational, ptr %4, i32 0, i32 1
  %19 = load i32, ptr %18, align 4, !tbaa !172
  %20 = sext i32 %19 to i64
  %21 = mul nsw i64 %17, %20
  %22 = sub nsw i64 %14, %21
  store i64 %22, ptr %6, align 8, !tbaa !183
  %23 = load i64, ptr %6, align 8, !tbaa !183
  %24 = icmp ne i64 %23, 0
  br i1 %24, label %25, label %38

25:                                               ; preds = %2
  %26 = load i64, ptr %6, align 8, !tbaa !183
  %27 = getelementptr inbounds nuw %struct.AVRational, ptr %4, i32 0, i32 1
  %28 = load i32, ptr %27, align 4, !tbaa !172
  %29 = sext i32 %28 to i64
  %30 = xor i64 %26, %29
  %31 = getelementptr inbounds nuw %struct.AVRational, ptr %5, i32 0, i32 1
  %32 = load i32, ptr %31, align 4, !tbaa !172
  %33 = sext i32 %32 to i64
  %34 = xor i64 %30, %33
  %35 = ashr i64 %34, 63
  %36 = trunc i64 %35 to i32
  %37 = or i32 %36, 1
  store i32 %37, ptr %3, align 4
  store i32 1, ptr %7, align 4
  br label %64

38:                                               ; preds = %2
  %39 = getelementptr inbounds nuw %struct.AVRational, ptr %5, i32 0, i32 1
  %40 = load i32, ptr %39, align 4, !tbaa !172
  %41 = icmp ne i32 %40, 0
  br i1 %41, label %42, label %47

42:                                               ; preds = %38
  %43 = getelementptr inbounds nuw %struct.AVRational, ptr %4, i32 0, i32 1
  %44 = load i32, ptr %43, align 4, !tbaa !172
  %45 = icmp ne i32 %44, 0
  br i1 %45, label %46, label %47

46:                                               ; preds = %42
  store i32 0, ptr %3, align 4
  store i32 1, ptr %7, align 4
  br label %64

47:                                               ; preds = %42, %38
  %48 = getelementptr inbounds nuw %struct.AVRational, ptr %4, i32 0, i32 0
  %49 = load i32, ptr %48, align 4, !tbaa !171
  %50 = icmp ne i32 %49, 0
  br i1 %50, label %51, label %63

51:                                               ; preds = %47
  %52 = getelementptr inbounds nuw %struct.AVRational, ptr %5, i32 0, i32 0
  %53 = load i32, ptr %52, align 4, !tbaa !171
  %54 = icmp ne i32 %53, 0
  br i1 %54, label %55, label %63

55:                                               ; preds = %51
  %56 = getelementptr inbounds nuw %struct.AVRational, ptr %4, i32 0, i32 0
  %57 = load i32, ptr %56, align 4, !tbaa !171
  %58 = ashr i32 %57, 31
  %59 = getelementptr inbounds nuw %struct.AVRational, ptr %5, i32 0, i32 0
  %60 = load i32, ptr %59, align 4, !tbaa !171
  %61 = ashr i32 %60, 31
  %62 = sub nsw i32 %58, %61
  store i32 %62, ptr %3, align 4
  store i32 1, ptr %7, align 4
  br label %64

63:                                               ; preds = %51, %47
  store i32 -2147483648, ptr %3, align 4
  store i32 1, ptr %7, align 4
  br label %64

64:                                               ; preds = %63, %55, %46, %25
  call void @llvm.lifetime.end.p0(i64 8, ptr %6) #13
  %65 = load i32, ptr %3, align 4
  ret i32 %65
}

; Function Attrs: alwaysinline nounwind uwtable
define internal i64 @av_inv_q(i64 %0) #4 {
  %2 = alloca %struct.AVRational, align 4
  %3 = alloca %struct.AVRational, align 4
  store i64 %0, ptr %3, align 4
  %4 = getelementptr inbounds nuw %struct.AVRational, ptr %2, i32 0, i32 0
  %5 = getelementptr inbounds nuw %struct.AVRational, ptr %3, i32 0, i32 1
  %6 = load i32, ptr %5, align 4, !tbaa !172
  store i32 %6, ptr %4, align 4, !tbaa !171
  %7 = getelementptr inbounds nuw %struct.AVRational, ptr %2, i32 0, i32 1
  %8 = getelementptr inbounds nuw %struct.AVRational, ptr %3, i32 0, i32 0
  %9 = load i32, ptr %8, align 4, !tbaa !171
  store i32 %9, ptr %7, align 4, !tbaa !172
  %10 = load i64, ptr %2, align 4
  ret i64 %10
}

; Function Attrs: cold nounwind optsize uwtable
define internal i32 @find_frame_rate_index(ptr noundef %0, ptr noundef %1) #0 {
  %3 = alloca i32, align 4
  %4 = alloca ptr, align 8
  %5 = alloca ptr, align 8
  %6 = alloca %struct.AVRational, align 4
  %7 = alloca %struct.AVRational, align 4
  %8 = alloca %struct.AVRational, align 4
  %9 = alloca i32, align 4
  %10 = alloca i32, align 4
  %11 = alloca %struct.AVRational, align 4
  store ptr %0, ptr %4, align 8, !tbaa !60
  store ptr %1, ptr %5, align 8, !tbaa !74
  call void @llvm.lifetime.start.p0(i64 8, ptr %6) #13
  call void @llvm.memset.p0.i64(ptr align 4 %6, i8 0, i64 8, i1 false)
  call void @llvm.lifetime.start.p0(i64 8, ptr %7) #13
  call void @llvm.lifetime.start.p0(i64 8, ptr %8) #13
  %12 = load ptr, ptr %4, align 8, !tbaa !60
  %13 = getelementptr inbounds nuw %struct.AVCodecContext, ptr %12, i32 0, i32 14
  %14 = load i64, ptr %13, align 4
  %15 = call i64 @av_inv_q(i64 %14)
  store i64 %15, ptr %8, align 4
  call void @llvm.lifetime.start.p0(i64 4, ptr %9) #13
  store i32 1, ptr %9, align 4, !tbaa !11
  br label %16

16:                                               ; preds = %123, %2
  %17 = load i32, ptr %9, align 4, !tbaa !11
  %18 = icmp slt i32 %17, 14
  br i1 %18, label %20, label %19

19:                                               ; preds = %16
  store i32 2, ptr %10, align 4
  br label %126

20:                                               ; preds = %16
  %21 = load ptr, ptr %4, align 8, !tbaa !60
  %22 = getelementptr inbounds nuw %struct.AVCodecContext, ptr %21, i32 0, i32 101
  %23 = load i32, ptr %22, align 4, !tbaa !86
  %24 = icmp sgt i32 %23, -1
  br i1 %24, label %25, label %29

25:                                               ; preds = %20
  %26 = load i32, ptr %9, align 4, !tbaa !11
  %27 = icmp sge i32 %26, 9
  br i1 %27, label %28, label %29

28:                                               ; preds = %25
  store i32 2, ptr %10, align 4
  br label %126

29:                                               ; preds = %25, %20
  %30 = getelementptr inbounds nuw %struct.AVRational, ptr %7, i32 0, i32 0
  store i32 1, ptr %30, align 4, !tbaa !171
  br label %31

31:                                               ; preds = %118, %29
  %32 = getelementptr inbounds nuw %struct.AVRational, ptr %7, i32 0, i32 0
  %33 = load i32, ptr %32, align 4, !tbaa !171
  %34 = icmp sle i32 %33, 4
  br i1 %34, label %35, label %122

35:                                               ; preds = %31
  %36 = getelementptr inbounds nuw %struct.AVRational, ptr %7, i32 0, i32 1
  store i32 1, ptr %36, align 4, !tbaa !172
  br label %37

37:                                               ; preds = %113, %35
  %38 = getelementptr inbounds nuw %struct.AVRational, ptr %7, i32 0, i32 1
  %39 = load i32, ptr %38, align 4, !tbaa !172
  %40 = icmp sle i32 %39, 32
  br i1 %40, label %41, label %117

41:                                               ; preds = %37
  call void @llvm.lifetime.start.p0(i64 8, ptr %11) #13
  %42 = load i32, ptr %9, align 4, !tbaa !11
  %43 = sext i32 %42 to i64
  %44 = getelementptr inbounds [0 x %struct.AVRational], ptr @ff_mpeg12_frame_rate_tab, i64 0, i64 %43
  %45 = load i64, ptr %7, align 4
  %46 = load i64, ptr %44, align 4
  %47 = call i64 @av_mul_q(i64 %45, i64 %46) #15
  store i64 %47, ptr %11, align 4
  %48 = load ptr, ptr %4, align 8, !tbaa !60
  %49 = getelementptr inbounds nuw %struct.AVCodecContext, ptr %48, i32 0, i32 4
  %50 = load i32, ptr %49, align 8, !tbaa !77
  %51 = icmp ne i32 %50, 2
  br i1 %51, label %52, label %61

52:                                               ; preds = %41
  %53 = getelementptr inbounds nuw %struct.AVRational, ptr %7, i32 0, i32 1
  %54 = load i32, ptr %53, align 4, !tbaa !172
  %55 = icmp ne i32 %54, 1
  br i1 %55, label %60, label %56

56:                                               ; preds = %52
  %57 = getelementptr inbounds nuw %struct.AVRational, ptr %7, i32 0, i32 0
  %58 = load i32, ptr %57, align 4, !tbaa !171
  %59 = icmp ne i32 %58, 1
  br i1 %59, label %60, label %61

60:                                               ; preds = %56, %52
  store i32 10, ptr %10, align 4
  br label %110

61:                                               ; preds = %56, %41
  %62 = getelementptr inbounds nuw %struct.AVRational, ptr %7, i32 0, i32 1
  %63 = load i32, ptr %62, align 4, !tbaa !172
  %64 = sext i32 %63 to i64
  %65 = getelementptr inbounds nuw %struct.AVRational, ptr %7, i32 0, i32 0
  %66 = load i32, ptr %65, align 4, !tbaa !171
  %67 = sext i32 %66 to i64
  %68 = call i64 @av_gcd(i64 noundef %64, i64 noundef %67) #15
  %69 = icmp ne i64 %68, 1
  br i1 %69, label %70, label %71

70:                                               ; preds = %61
  store i32 10, ptr %10, align 4
  br label %110

71:                                               ; preds = %61
  %72 = getelementptr inbounds nuw %struct.AVRational, ptr %6, i32 0, i32 0
  %73 = load i32, ptr %72, align 4, !tbaa !171
  %74 = icmp eq i32 %73, 0
  br i1 %74, label %95, label %75

75:                                               ; preds = %71
  %76 = load i64, ptr %8, align 4
  %77 = load i64, ptr %6, align 4
  %78 = load i64, ptr %11, align 4
  %79 = call i32 @av_nearer_q(i64 %76, i64 %77, i64 %78)
  %80 = icmp slt i32 %79, 0
  br i1 %80, label %95, label %81

81:                                               ; preds = %75
  %82 = getelementptr inbounds nuw %struct.AVRational, ptr %7, i32 0, i32 0
  %83 = load i32, ptr %82, align 4, !tbaa !171
  %84 = icmp eq i32 %83, 1
  br i1 %84, label %85, label %109

85:                                               ; preds = %81
  %86 = getelementptr inbounds nuw %struct.AVRational, ptr %7, i32 0, i32 1
  %87 = load i32, ptr %86, align 4, !tbaa !172
  %88 = icmp eq i32 %87, 1
  br i1 %88, label %89, label %109

89:                                               ; preds = %85
  %90 = load i64, ptr %8, align 4
  %91 = load i64, ptr %6, align 4
  %92 = load i64, ptr %11, align 4
  %93 = call i32 @av_nearer_q(i64 %90, i64 %91, i64 %92)
  %94 = icmp eq i32 %93, 0
  br i1 %94, label %95, label %109

95:                                               ; preds = %89, %75, %71
  call void @llvm.memcpy.p0.p0.i64(ptr align 4 %6, ptr align 4 %11, i64 8, i1 false), !tbaa.struct !125
  %96 = load i32, ptr %9, align 4, !tbaa !11
  %97 = load ptr, ptr %5, align 8, !tbaa !74
  %98 = getelementptr inbounds nuw %struct.MPEG12EncContext, ptr %97, i32 0, i32 2
  store i32 %96, ptr %98, align 8, !tbaa !123
  %99 = getelementptr inbounds nuw %struct.AVRational, ptr %7, i32 0, i32 0
  %100 = load i32, ptr %99, align 4, !tbaa !171
  %101 = load ptr, ptr %5, align 8, !tbaa !74
  %102 = getelementptr inbounds nuw %struct.MPEG12EncContext, ptr %101, i32 0, i32 1
  %103 = getelementptr inbounds nuw %struct.AVRational, ptr %102, i32 0, i32 0
  store i32 %100, ptr %103, align 8, !tbaa !173
  %104 = getelementptr inbounds nuw %struct.AVRational, ptr %7, i32 0, i32 1
  %105 = load i32, ptr %104, align 4, !tbaa !172
  %106 = load ptr, ptr %5, align 8, !tbaa !74
  %107 = getelementptr inbounds nuw %struct.MPEG12EncContext, ptr %106, i32 0, i32 1
  %108 = getelementptr inbounds nuw %struct.AVRational, ptr %107, i32 0, i32 1
  store i32 %105, ptr %108, align 4, !tbaa !174
  br label %109

109:                                              ; preds = %95, %89, %85, %81
  store i32 0, ptr %10, align 4
  br label %110

110:                                              ; preds = %109, %70, %60
  call void @llvm.lifetime.end.p0(i64 8, ptr %11) #13
  %111 = load i32, ptr %10, align 4
  switch i32 %111, label %136 [
    i32 0, label %112
    i32 10, label %113
  ]

112:                                              ; preds = %110
  br label %113

113:                                              ; preds = %112, %110
  %114 = getelementptr inbounds nuw %struct.AVRational, ptr %7, i32 0, i32 1
  %115 = load i32, ptr %114, align 4, !tbaa !172
  %116 = add nsw i32 %115, 1
  store i32 %116, ptr %114, align 4, !tbaa !172
  br label %37, !llvm.loop !175

117:                                              ; preds = %37
  br label %118

118:                                              ; preds = %117
  %119 = getelementptr inbounds nuw %struct.AVRational, ptr %7, i32 0, i32 0
  %120 = load i32, ptr %119, align 4, !tbaa !171
  %121 = add nsw i32 %120, 1
  store i32 %121, ptr %119, align 4, !tbaa !171
  br label %31, !llvm.loop !176

122:                                              ; preds = %31
  br label %123

123:                                              ; preds = %122
  %124 = load i32, ptr %9, align 4, !tbaa !11
  %125 = add nsw i32 %124, 1
  store i32 %125, ptr %9, align 4, !tbaa !11
  br label %16, !llvm.loop !177

126:                                              ; preds = %28, %19
  call void @llvm.lifetime.end.p0(i64 4, ptr %9) #13
  br label %127

127:                                              ; preds = %126
  %128 = load i64, ptr %8, align 4
  %129 = load i64, ptr %6, align 4
  %130 = call i32 @av_cmp_q(i64 %128, i64 %129)
  %131 = icmp ne i32 %130, 0
  br i1 %131, label %132, label %133

132:                                              ; preds = %127
  store i32 -1, ptr %3, align 4
  store i32 1, ptr %10, align 4
  br label %134

133:                                              ; preds = %127
  store i32 0, ptr %3, align 4
  store i32 1, ptr %10, align 4
  br label %134

134:                                              ; preds = %133, %132
  call void @llvm.lifetime.end.p0(i64 8, ptr %8) #13
  call void @llvm.lifetime.end.p0(i64 8, ptr %7) #13
  call void @llvm.lifetime.end.p0(i64 8, ptr %6) #13
  %135 = load i32, ptr %3, align 4
  ret i32 %135

136:                                              ; preds = %110
  unreachable
}